Certificate:
    Data:
        Version: 3 (0x2)
        Serial Number: 3 (0x3)
    Signature Algorithm: sha256WithRSAEncryption
        Issuer: C=CA, ST=MB, L=Winnipeg, O=AEBL, OU=Tech Department, CN=AEBL CA/name=EasyRSA/emailAddress=aeblmobile@gmail.com
        Validity
            Not Before: Mar 10 04:45:26 2017 GMT
            Not After : Mar  8 04:45:26 2027 GMT
        Subject: C=CA, ST=MB, L=Winnipeg, O=AEBL, OU=Tech Department, CN=freenic/name=EasyRSA/emailAddress=aeblmobile@gmail.com
        Subject Public Key Info:
            Public Key Algorithm: rsaEncryption
                Public-Key: (2048 bit)
                Modulus:
                    00:b5:d0:1e:40:2f:c5:64:a2:2f:1e:ba:73:c4:58:
                    6b:5e:5d:52:28:99:1a:58:73:91:12:22:34:c6:d2:
                    d1:ef:f1:2e:b6:b8:96:bb:f5:05:20:80:4d:b1:eb:
                    25:e7:f2:f6:ca:d2:ae:11:35:1e:89:9a:fc:c7:0f:
                    a5:38:11:02:3c:54:de:69:ba:05:9f:8f:f2:11:5e:
                    a8:a0:ca:7a:ef:31:13:a1:05:cc:bc:4e:df:7b:41:
                    70:a7:a9:64:1d:ac:e4:57:9f:96:7d:f4:86:32:78:
                    c0:8d:f3:31:ec:c8:24:e2:26:47:0c:60:69:c5:36:
                    2c:1c:80:c0:39:de:fb:fd:ea:18:b6:89:b9:28:c7:
                    29:43:fc:eb:3a:f3:28:5a:b9:b5:03:ee:62:cd:c4:
                    d1:79:4c:23:cd:44:53:b1:d5:93:89:b4:fe:c4:50:
                    5c:52:63:ab:07:ba:5b:f4:c0:5e:7e:c5:de:64:4f:
                    89:0e:91:4d:cf:22:85:c2:6e:12:6b:1e:f5:24:42:
                    21:67:39:26:95:55:cf:e8:d6:8f:1d:78:f6:ca:94:
                    69:a8:32:5c:29:89:a3:a7:d0:ee:7f:a6:ee:cf:ba:
                    b7:9e:cb:6b:46:ea:4d:57:e7:fa:ec:71:b1:a6:2f:
                    42:20:25:79:13:f5:40:ca:c5:9d:ec:22:d0:b0:87:
                    49:33
                Exponent: 65537 (0x10001)
        X509v3 extensions:
            X509v3 Basic Constraints: 
                CA:FALSE
            Netscape Comment: 
                Easy-RSA Generated Certificate
            X509v3 Subject Key Identifier: 
                24:3F:AE:4B:FB:27:CC:2E:57:FC:A2:ED:8B:74:FD:4D:D2:52:26:7A
            X509v3 Authority Key Identifier: 
                keyid:24:38:2B:1F:FC:EB:A0:9A:9C:AF:D0:88:A1:07:72:8C:2B:96:EA:6E
                DirName:/C=CA/ST=MB/L=Winnipeg/O=AEBL/OU=Tech Department/CN=AEBL CA/name=EasyRSA/emailAddress=aeblmobile@gmail.com
                serial:A5:83:A0:3A:FD:30:5B:E6

            X509v3 Extended Key Usage: 
                TLS Web Client Authentication
            X509v3 Key Usage: 
                Digital Signature
            X509v3 Subject Alternative Name: 
                DNS:freenic
    Signature Algorithm: sha256WithRSAEncryption
         4e:88:f5:49:2c:4d:3c:90:3b:bd:94:cc:e6:00:fd:81:c2:47:
         60:15:86:5f:59:78:f0:4d:78:30:03:34:16:ef:f4:75:9f:4a:
         b1:fb:da:a8:5f:e2:87:09:7f:4f:40:af:0d:6c:58:9c:cf:00:
         5a:73:e1:85:da:fe:8b:bb:79:8f:16:f9:87:c8:77:3e:13:80:
         58:b1:40:03:8d:5c:ab:53:82:ec:ee:78:54:a5:78:5c:ec:39:
         63:e9:aa:30:dc:fb:2a:0c:f3:b3:e3:a4:24:bb:4a:5c:a4:93:
         e4:fb:f9:fa:a2:a8:d5:c1:d1:02:38:a0:23:b3:08:af:1d:47:
         1b:d6:6e:98:a5:21:ef:74:ed:92:d3:f9:52:d6:e7:df:29:07:
         b2:da:df:50:cc:6c:d2:b0:05:91:bd:c2:a2:10:b6:ae:5c:e1:
         1f:f1:2a:da:51:5a:ae:6b:79:df:bd:3c:f9:2d:52:8d:f8:2d:
         6e:35:25:f0:69:1b:09:6a:a2:59:87:0c:e0:e2:56:44:e1:84:
         06:47:5c:43:df:a0:fd:59:2a:85:3a:0d:6a:e3:3f:90:31:6a:
         99:6b:57:b7:f2:ac:12:c8:5a:29:f0:ad:28:bc:a2:10:35:60:
         5d:0c:d6:b4:86:2d:89:8b:11:e8:3d:e2:ab:1a:02:c4:0b:eb:
         17:00:d5:48
-----BEGIN CERTIFICATE-----
MIIFJzCCBA+gAwIBAgIBAzANBgkqhkiG9w0BAQsFADCBnzELMAkGA1UEBhMCQ0Ex
CzAJBgNVBAgTAk1CMREwDwYDVQQHEwhXaW5uaXBlZzENMAsGA1UEChMEQUVCTDEY
MBYGA1UECxMPVGVjaCBEZXBhcnRtZW50MRAwDgYDVQQDEwdBRUJMIENBMRAwDgYD
VQQpEwdFYXN5UlNBMSMwIQYJKoZIhvcNAQkBFhRhZWJsbW9iaWxlQGdtYWlsLmNv
bTAeFw0xNzAzMTAwNDQ1MjZaFw0yNzAzMDgwNDQ1MjZaMIGfMQswCQYDVQQGEwJD
QTELMAkGA1UECBMCTUIxETAPBgNVBAcTCFdpbm5pcGVnMQ0wCwYDVQQKEwRBRUJM
MRgwFgYDVQQLEw9UZWNoIERlcGFydG1lbnQxEDAOBgNVBAMTB2ZyZWVuaWMxEDAO
BgNVBCkTB0Vhc3lSU0ExIzAhBgkqhkiG9w0BCQEWFGFlYmxtb2JpbGVAZ21haWwu
Y29tMIIBIjANBgkqhkiG9w0BAQEFAAOCAQ8AMIIBCgKCAQEAtdAeQC/FZKIvHrpz
xFhrXl1SKJkaWHOREiI0xtLR7/EutriWu/UFIIBNsesl5/L2ytKuETUeiZr8xw+l
OBECPFTeaboFn4/yEV6ooMp67zEToQXMvE7fe0Fwp6lkHazkV5+WffSGMnjAjfMx
7Mgk4iZHDGBpxTYsHIDAOd77/eoYtom5KMcpQ/zrOvMoWrm1A+5izcTReUwjzURT
sdWTibT+xFBcUmOrB7pb9MBefsXeZE+JDpFNzyKFwm4Sax71JEIhZzkmlVXP6NaP
HXj2ypRpqDJcKYmjp9Duf6buz7q3nstrRupNV+f67HGxpi9CICV5E/VAysWd7CLQ
sIdJMwIDAQABo4IBajCCAWYwCQYDVR0TBAIwADAtBglghkgBhvhCAQ0EIBYeRWFz
eS1SU0EgR2VuZXJhdGVkIENlcnRpZmljYXRlMB0GA1UdDgQWBBQkP65L+yfMLlf8
ou2LdP1N0lImejCB1AYDVR0jBIHMMIHJgBQkOCsf/Ougmpyv0IihB3KMK5bqbqGB
paSBojCBnzELMAkGA1UEBhMCQ0ExCzAJBgNVBAgTAk1CMREwDwYDVQQHEwhXaW5u
aXBlZzENMAsGA1UEChMEQUVCTDEYMBYGA1UECxMPVGVjaCBEZXBhcnRtZW50MRAw
DgYDVQQDEwdBRUJMIENBMRAwDgYDVQQpEwdFYXN5UlNBMSMwIQYJKoZIhvcNAQkB
FhRhZWJsbW9iaWxlQGdtYWlsLmNvbYIJAKWDoDr9MFvmMBMGA1UdJQQMMAoGCCsG
AQUFBwMCMAsGA1UdDwQEAwIHgDASBgNVHREECzAJggdmcmVlbmljMA0GCSqGSIb3
DQEBCwUAA4IBAQBOiPVJLE08kDu9lMzmAP2BwkdgFYZfWXjwTXgwAzQW7/R1n0qx
+9qoX+KHCX9PQK8NbFiczwBac+GF2v6Lu3mPFvmHyHc+E4BYsUADjVyrU4Ls7nhU
pXhc7Dlj6aow3PsqDPOz46Qku0pcpJPk+/n6oqjVwdECOKAjswivHUcb1m6YpSHv
dO2S0/lS1uffKQey2t9QzGzSsAWRvcKiELauXOEf8SraUVqua3nfvTz5LVKN+C1u
NSXwaRsJaqJZhwzg4lZE4YQGR1xD36D9WSqFOg1q4z+QMWqZa1e38qwSyFop8K0o
vKIQNWBdDNa0hi2JixHoPeKrGgLEC+sXANVI
-----END CERTIFICATE-----
